---
triple:          'arm64-apple-darwin'
binary-path:     '/Users/willwang/Projects/CP/CF/C_Arrow_Path'
relocations:
  - { offset: 0x3F, size: 0x8, addend: 0x0, symName: _n, symObjAddr: 0x23BD0, symBinAddr: 0x100008000, symSize: 0x0 }
  - { offset: 0x5B, size: 0x8, addend: 0x0, symName: _seen, symObjAddr: 0x23BD4, symBinAddr: 0x100008004, symSize: 0x0 }
  - { offset: 0x8C, size: 0x8, addend: 0x0, symName: _a, symObjAddr: 0x1AA5E0, symBinAddr: 0x10018EA10, symSize: 0x0 }
  - { offset: 0x4111, size: 0x8, addend: 0x0, symName: __ZNSt3__124__put_character_sequenceB8ne190103IcNS_11char_traitsIcEEEERNS_13basic_ostreamIT_T0_EES7_PKS4_m, symObjAddr: 0x1638, symBinAddr: 0x100003120, symSize: 0x1E4 }
  - { offset: 0x51EC, size: 0x8, addend: 0x0, symName: __ZNSt3__1lsB8ne190103INS_11char_traitsIcEEEERNS_13basic_ostreamIcT_EES6_PKc, symObjAddr: 0x408, symBinAddr: 0x100001EF0, symSize: 0x48 }
  - { offset: 0x5232, size: 0x8, addend: 0x0, symName: __ZNSt3__122__make_exception_guardB8ne190103INS_6vectorINS_12basic_stringIcNS_11char_traitsIcEENS_9allocatorIcEEEENS5_IS7_EEE16__destroy_vectorEEENS_28__exception_guard_exceptionsIT_EESC_, symObjAddr: 0x600, symBinAddr: 0x1000020E8, symSize: 0x40 }
  - { offset: 0x5267, size: 0x8, addend: 0x0, symName: __ZNSt3__119__allocate_at_leastB8ne190103INS_9allocatorINS_12basic_stringIcNS_11char_traitsIcEENS1_IcEEEEEEEENS_19__allocation_resultINS_16allocator_traitsIT_E7pointerEEERSA_m, symObjAddr: 0x9EC, symBinAddr: 0x1000024D4, symSize: 0x40 }
  - { offset: 0x52AA, size: 0x8, addend: 0x0, symName: __ZNSt3__13minB8ne190103ImEERKT_S3_S3_, symObjAddr: 0xA90, symBinAddr: 0x100002578, symSize: 0x2C }
  - { offset: 0x54EE, size: 0x8, addend: 0x0, symName: __ZNSt3__13minB8ne190103ImNS_6__lessIvvEEEERKT_S5_S5_T0_, symObjAddr: 0xB2C, symBinAddr: 0x100002614, symSize: 0x54 }
  - { offset: 0x558D, size: 0x8, addend: 0x0, symName: __ZNSt3__120__throw_length_errorB8ne190103EPKc, symObjAddr: 0xC08, symBinAddr: 0x1000026F0, symSize: 0x64 }
  - { offset: 0x55B5, size: 0x8, addend: 0x0, symName: __ZNSt3__117__libcpp_allocateB8ne190103Emm, symObjAddr: 0xD70, symBinAddr: 0x100002858, symSize: 0x28 }
  - { offset: 0x55F2, size: 0x8, addend: 0x0, symName: __ZNSt3__121__libcpp_operator_newB8ne190103IJmEEEPvDpT_, symObjAddr: 0xD98, symBinAddr: 0x100002880, symSize: 0x24 }
  - { offset: 0x562B, size: 0x8, addend: 0x0, symName: __ZNSt3__112__to_addressB8ne190103INS_12basic_stringIcNS_11char_traitsIcEENS_9allocatorIcEEEEEEPT_S8_, symObjAddr: 0xE94, symBinAddr: 0x10000297C, symSize: 0x14 }
  - { offset: 0x5660, size: 0x8, addend: 0x0, symName: __ZNSt3__119__libcpp_deallocateB8ne190103EPvmm, symObjAddr: 0x1398, symBinAddr: 0x100002E80, symSize: 0x30 }
  - { offset: 0x56A8, size: 0x8, addend: 0x0, symName: __ZNSt3__127__do_deallocate_handle_sizeB8ne190103IJEEEvPvmDpT_, symObjAddr: 0x13C8, symBinAddr: 0x100002EB0, symSize: 0x2C }
  - { offset: 0x56E6, size: 0x8, addend: 0x0, symName: __ZNSt3__124__libcpp_operator_deleteB8ne190103IJPvmEEEvDpT_, symObjAddr: 0x13F4, symBinAddr: 0x100002EDC, symSize: 0x2C }
  - { offset: 0x5762, size: 0x8, addend: 0x0, symName: __ZNSt3__116__pad_and_outputB8ne190103IcNS_11char_traitsIcEEEENS_19ostreambuf_iteratorIT_T0_EES6_PKS4_S8_S8_RNS_8ios_baseES4_, symObjAddr: 0x185C, symBinAddr: 0x100003344, symSize: 0x214 }
  - { offset: 0x5831, size: 0x8, addend: 0x0, symName: __ZNSt3__112__to_addressB8ne190103IKcEEPT_S3_, symObjAddr: 0x1D28, symBinAddr: 0x100003810, symSize: 0x14 }
  - { offset: 0x5899, size: 0x8, addend: 0x0, symName: __ZNSt3__19use_facetB8ne190103INS_5ctypeIcEEEERKT_RKNS_6localeE, symObjAddr: 0x1F7C, symBinAddr: 0x100003A64, symSize: 0x2C }
  - { offset: 0x5D66, size: 0x8, addend: 0x0, symName: __ZNSt3__118__constexpr_strlenB8ne190103IcEEmPKT_, symObjAddr: 0x2010, symBinAddr: 0x100003AF8, symSize: 0x24 }
  - { offset: 0x6BFF, size: 0x8, addend: 0x0, symName: __ZSt28__throw_bad_array_new_lengthB8ne190103v, symObjAddr: 0xD3C, symBinAddr: 0x100002824, symSize: 0x34 }
  - { offset: 0x7172, size: 0x8, addend: 0x0, symName: __ZNSt3__16vectorINS_12basic_stringIcNS_11char_traitsIcEENS_9allocatorIcEEEENS4_IS6_EEEC1B8ne190103Em, symObjAddr: 0x0, symBinAddr: 0x100001AE8, symSize: 0x34 }
  - { offset: 0x71A9, size: 0x8, addend: 0x0, symName: __ZNSt3__16vectorINS_12basic_stringIcNS_11char_traitsIcEENS_9allocatorIcEEEENS4_IS6_EEED1B8ne190103Ev, symObjAddr: 0x34, symBinAddr: 0x100001B1C, symSize: 0x2C }
  - { offset: 0x71D1, size: 0x8, addend: 0x0, symName: __Z3dfsiii, symObjAddr: 0x60, symBinAddr: 0x100001B48, symSize: 0x264 }
  - { offset: 0x7219, size: 0x8, addend: 0x0, symName: __ZNSt3__16vectorINS_12basic_stringIcNS_11char_traitsIcEENS_9allocatorIcEEEENS4_IS6_EEEixB8ne190103Em, symObjAddr: 0x2C4, symBinAddr: 0x100001DAC, symSize: 0x2C }
  - { offset: 0x724E, size: 0x8, addend: 0x0, symName: __ZNSt3__112basic_stringIcNS_11char_traitsIcEENS_9allocatorIcEEEixB8ne190103Em, symObjAddr: 0x2F0, symBinAddr: 0x100001DD8, symSize: 0x48 }
  - { offset: 0x7281, size: 0x8, addend: 0x0, symName: __Z5solvev, symObjAddr: 0x338, symBinAddr: 0x100001E20, symSize: 0xA4 }
  - { offset: 0x729A, size: 0x8, addend: 0x0, symName: __ZNSt3__112basic_stringIcNS_11char_traitsIcEENS_9allocatorIcEEEaSB8ne190103EPKc, symObjAddr: 0x3DC, symBinAddr: 0x100001EC4, symSize: 0x2C }
  - { offset: 0x72CD, size: 0x8, addend: 0x0, symName: _main, symObjAddr: 0x450, symBinAddr: 0x100001F38, symSize: 0x78 }
  - { offset: 0x72F5, size: 0x8, addend: 0x0, symName: __ZNSt3__19basic_iosIcNS_11char_traitsIcEEE3tieB8ne190103EPNS_13basic_ostreamIcS2_EE, symObjAddr: 0x4C8, symBinAddr: 0x100001FB0, symSize: 0x2C }
  - { offset: 0x7337, size: 0x8, addend: 0x0, symName: __ZNSt3__16vectorINS_12basic_stringIcNS_11char_traitsIcEENS_9allocatorIcEEEENS4_IS6_EEEC2B8ne190103Em, symObjAddr: 0x4F4, symBinAddr: 0x100001FDC, symSize: 0xD0 }
  - { offset: 0x7392, size: 0x8, addend: 0x0, symName: __ZNSt3__117__compressed_pairIPNS_12basic_stringIcNS_11char_traitsIcEENS_9allocatorIcEEEENS4_IS6_EEEC1B8ne190103IDnNS_18__default_init_tagEEEOT_OT0_, symObjAddr: 0x5C4, symBinAddr: 0x1000020AC, symSize: 0x3C }
  - { offset: 0x73E8, size: 0x8, addend: 0x0, symName: __ZNSt3__16vectorINS_12basic_stringIcNS_11char_traitsIcEENS_9allocatorIcEEEENS4_IS6_EEE16__destroy_vectorC1B8ne190103ERS8_, symObjAddr: 0x640, symBinAddr: 0x100002128, symSize: 0x34 }
  - { offset: 0x741F, size: 0x8, addend: 0x0, symName: __ZNSt3__16vectorINS_12basic_stringIcNS_11char_traitsIcEENS_9allocatorIcEEEENS4_IS6_EEE11__vallocateB8ne190103Em, symObjAddr: 0x674, symBinAddr: 0x10000215C, symSize: 0xB0 }
  - { offset: 0x7461, size: 0x8, addend: 0x0, symName: __ZNSt3__16vectorINS_12basic_stringIcNS_11char_traitsIcEENS_9allocatorIcEEEENS4_IS6_EEE18__construct_at_endEm, symObjAddr: 0x724, symBinAddr: 0x10000220C, symSize: 0xC4 }
  - { offset: 0x74D1, size: 0x8, addend: 0x0, symName: __ZNSt3__128__exception_guard_exceptionsINS_6vectorINS_12basic_stringIcNS_11char_traitsIcEENS_9allocatorIcEEEENS5_IS7_EEE16__destroy_vectorEE10__completeB8ne190103Ev, symObjAddr: 0x7E8, symBinAddr: 0x1000022D0, symSize: 0x1C }
  - { offset: 0x74F5, size: 0x8, addend: 0x0, symName: __ZNSt3__128__exception_guard_exceptionsINS_6vectorINS_12basic_stringIcNS_11char_traitsIcEENS_9allocatorIcEEEENS5_IS7_EEE16__destroy_vectorEED1B8ne190103Ev, symObjAddr: 0x804, symBinAddr: 0x1000022EC, symSize: 0x2C }
  - { offset: 0x751D, size: 0x8, addend: 0x0, symName: __ZNSt3__117__compressed_pairIPNS_12basic_stringIcNS_11char_traitsIcEENS_9allocatorIcEEEENS4_IS6_EEEC2B8ne190103IDnNS_18__default_init_tagEEEOT_OT0_, symObjAddr: 0x830, symBinAddr: 0x100002318, symSize: 0x40 }
  - { offset: 0x7573, size: 0x8, addend: 0x0, symName: __ZNSt3__122__compressed_pair_elemIPNS_12basic_stringIcNS_11char_traitsIcEENS_9allocatorIcEEEELi0ELb0EEC2B8ne190103IDnTnNS_9enable_ifIXntsr7is_sameIS8_u7__decayIT_EEE5valueEiE4typeELi0EEEOSB_, symObjAddr: 0x870, symBinAddr: 0x100002358, symSize: 0x1C }
  - { offset: 0x75B8, size: 0x8, addend: 0x0, symName: __ZNSt3__122__compressed_pair_elemINS_9allocatorINS_12basic_stringIcNS_11char_traitsIcEENS1_IcEEEEEELi1ELb1EEC2B8ne190103ENS_18__default_init_tagE, symObjAddr: 0x88C, symBinAddr: 0x100002374, symSize: 0x2C }
  - { offset: 0x75EB, size: 0x8, addend: 0x0, symName: __ZNSt3__19allocatorINS_12basic_stringIcNS_11char_traitsIcEENS0_IcEEEEEC2B8ne190103Ev, symObjAddr: 0x8B8, symBinAddr: 0x1000023A0, symSize: 0x2C }
  - { offset: 0x7613, size: 0x8, addend: 0x0, symName: __ZNSt3__116__non_trivial_ifILb1ENS_9allocatorINS_12basic_stringIcNS_11char_traitsIcEENS1_IcEEEEEEEC2B8ne190103Ev, symObjAddr: 0x8E4, symBinAddr: 0x1000023CC, symSize: 0x14 }
  - { offset: 0x763B, size: 0x8, addend: 0x0, symName: __ZNSt3__128__exception_guard_exceptionsINS_6vectorINS_12basic_stringIcNS_11char_traitsIcEENS_9allocatorIcEEEENS5_IS7_EEE16__destroy_vectorEEC1B8ne190103ESA_, symObjAddr: 0x8F8, symBinAddr: 0x1000023E0, symSize: 0x34 }
  - { offset: 0x7671, size: 0x8, addend: 0x0, symName: __ZNSt3__128__exception_guard_exceptionsINS_6vectorINS_12basic_stringIcNS_11char_traitsIcEENS_9allocatorIcEEEENS5_IS7_EEE16__destroy_vectorEEC2B8ne190103ESA_, symObjAddr: 0x92C, symBinAddr: 0x100002414, symSize: 0x24 }
  - { offset: 0x76A7, size: 0x8, addend: 0x0, symName: __ZNSt3__16vectorINS_12basic_stringIcNS_11char_traitsIcEENS_9allocatorIcEEEENS4_IS6_EEE16__destroy_vectorC2B8ne190103ERS8_, symObjAddr: 0x950, symBinAddr: 0x100002438, symSize: 0x20 }
  - { offset: 0x76DE, size: 0x8, addend: 0x0, symName: __ZNKSt3__16vectorINS_12basic_stringIcNS_11char_traitsIcEENS_9allocatorIcEEEENS4_IS6_EEE8max_sizeEv, symObjAddr: 0x970, symBinAddr: 0x100002458, symSize: 0x60 }
  - { offset: 0x7704, size: 0x8, addend: 0x0, symName: __ZNKSt3__16vectorINS_12basic_stringIcNS_11char_traitsIcEENS_9allocatorIcEEEENS4_IS6_EEE20__throw_length_errorB8ne190103Ev, symObjAddr: 0x9D0, symBinAddr: 0x1000024B8, symSize: 0x1C }
  - { offset: 0x7728, size: 0x8, addend: 0x0, symName: __ZNSt3__16vectorINS_12basic_stringIcNS_11char_traitsIcEENS_9allocatorIcEEEENS4_IS6_EEE7__allocB8ne190103Ev, symObjAddr: 0xA2C, symBinAddr: 0x100002514, symSize: 0x28 }
  - { offset: 0x774C, size: 0x8, addend: 0x0, symName: __ZNSt3__16vectorINS_12basic_stringIcNS_11char_traitsIcEENS_9allocatorIcEEEENS4_IS6_EEE9__end_capB8ne190103Ev, symObjAddr: 0xA54, symBinAddr: 0x10000253C, symSize: 0x28 }
  - { offset: 0x7770, size: 0x8, addend: 0x0, symName: __ZNKSt3__16vectorINS_12basic_stringIcNS_11char_traitsIcEENS_9allocatorIcEEEENS4_IS6_EEE14__annotate_newB8ne190103Em, symObjAddr: 0xA7C, symBinAddr: 0x100002564, symSize: 0x14 }
  - { offset: 0x77AE, size: 0x8, addend: 0x0, symName: __ZNSt3__116allocator_traitsINS_9allocatorINS_12basic_stringIcNS_11char_traitsIcEENS1_IcEEEEEEE8max_sizeB8ne190103IS7_TnNS_9enable_ifIXsr14__has_max_sizeIKT_EE5valueEiE4typeELi0EEEmRKS7_, symObjAddr: 0xABC, symBinAddr: 0x1000025A4, symSize: 0x24 }
  - { offset: 0x77E0, size: 0x8, addend: 0x0, symName: __ZNKSt3__16vectorINS_12basic_stringIcNS_11char_traitsIcEENS_9allocatorIcEEEENS4_IS6_EEE7__allocB8ne190103Ev, symObjAddr: 0xAE0, symBinAddr: 0x1000025C8, symSize: 0x28 }
  - { offset: 0x7805, size: 0x8, addend: 0x0, symName: __ZNSt3__114numeric_limitsIlE3maxB8ne190103Ev, symObjAddr: 0xB08, symBinAddr: 0x1000025F0, symSize: 0x14 }
  - { offset: 0x782C, size: 0x8, addend: 0x0, symName: __ZNKSt3__16__lessIvvEclB8ne190103ImmEEbRKT_RKT0_, symObjAddr: 0xB80, symBinAddr: 0x100002668, symSize: 0x30 }
  - { offset: 0x787E, size: 0x8, addend: 0x0, symName: __ZNKSt3__19allocatorINS_12basic_stringIcNS_11char_traitsIcEENS0_IcEEEEE8max_sizeB8ne190103Ev, symObjAddr: 0xBB0, symBinAddr: 0x100002698, symSize: 0x18 }
  - { offset: 0x78A2, size: 0x8, addend: 0x0, symName: __ZNKSt3__117__compressed_pairIPNS_12basic_stringIcNS_11char_traitsIcEENS_9allocatorIcEEEENS4_IS6_EEE6secondB8ne190103Ev, symObjAddr: 0xBC8, symBinAddr: 0x1000026B0, symSize: 0x24 }
  - { offset: 0x78C6, size: 0x8, addend: 0x0, symName: __ZNKSt3__122__compressed_pair_elemINS_9allocatorINS_12basic_stringIcNS_11char_traitsIcEENS1_IcEEEEEELi1ELb1EE5__getB8ne190103Ev, symObjAddr: 0xBEC, symBinAddr: 0x1000026D4, symSize: 0x14 }
  - { offset: 0x78EB, size: 0x8, addend: 0x0, symName: __ZNSt3__123__libcpp_numeric_limitsIlLb1EE3maxB8ne190103Ev, symObjAddr: 0xC00, symBinAddr: 0x1000026E8, symSize: 0x8 }
  - { offset: 0x78FE, size: 0x8, addend: 0x0, symName: __ZNSt12length_errorC1B8ne190103EPKc, symObjAddr: 0xC6C, symBinAddr: 0x100002754, symSize: 0x34 }
  - { offset: 0x7934, size: 0x8, addend: 0x0, symName: __ZNSt12length_errorC2B8ne190103EPKc, symObjAddr: 0xCA0, symBinAddr: 0x100002788, symSize: 0x44 }
  - { offset: 0x796A, size: 0x8, addend: 0x0, symName: __ZNSt3__19allocatorINS_12basic_stringIcNS_11char_traitsIcEENS0_IcEEEEE8allocateB8ne190103Em, symObjAddr: 0xCE4, symBinAddr: 0x1000027CC, symSize: 0x58 }
  - { offset: 0x799C, size: 0x8, addend: 0x0, symName: __ZNSt3__117__compressed_pairIPNS_12basic_stringIcNS_11char_traitsIcEENS_9allocatorIcEEEENS4_IS6_EEE6secondB8ne190103Ev, symObjAddr: 0xDBC, symBinAddr: 0x1000028A4, symSize: 0x24 }
  - { offset: 0x79C0, size: 0x8, addend: 0x0, symName: __ZNSt3__122__compressed_pair_elemINS_9allocatorINS_12basic_stringIcNS_11char_traitsIcEENS1_IcEEEEEELi1ELb1EE5__getB8ne190103Ev, symObjAddr: 0xDE0, symBinAddr: 0x1000028C8, symSize: 0x14 }
  - { offset: 0x79E4, size: 0x8, addend: 0x0, symName: __ZNSt3__117__compressed_pairIPNS_12basic_stringIcNS_11char_traitsIcEENS_9allocatorIcEEEENS4_IS6_EEE5firstB8ne190103Ev, symObjAddr: 0xDF4, symBinAddr: 0x1000028DC, symSize: 0x24 }
  - { offset: 0x7A08, size: 0x8, addend: 0x0, symName: __ZNSt3__122__compressed_pair_elemIPNS_12basic_stringIcNS_11char_traitsIcEENS_9allocatorIcEEEELi0ELb0EE5__getB8ne190103Ev, symObjAddr: 0xE18, symBinAddr: 0x100002900, symSize: 0x14 }
  - { offset: 0x7A45, size: 0x8, addend: 0x0, symName: __ZNSt3__16vectorINS_12basic_stringIcNS_11char_traitsIcEENS_9allocatorIcEEEENS4_IS6_EEE21_ConstructTransactionC1B8ne190103ERS8_m, symObjAddr: 0xE2C, symBinAddr: 0x100002914, symSize: 0x3C }
  - { offset: 0x7A8C, size: 0x8, addend: 0x0, symName: __ZNSt3__116allocator_traitsINS_9allocatorINS_12basic_stringIcNS_11char_traitsIcEENS1_IcEEEEEEE9constructB8ne190103IS6_JETnNS_9enable_ifIXsr15__has_constructIS7_PT_DpT0_EE5valueEiE4typeELi0EEEvRS7_SC_DpOSD_, symObjAddr: 0xE68, symBinAddr: 0x100002950, symSize: 0x2C }
  - { offset: 0x7AD2, size: 0x8, addend: 0x0, symName: __ZNSt3__16vectorINS_12basic_stringIcNS_11char_traitsIcEENS_9allocatorIcEEEENS4_IS6_EEE21_ConstructTransactionD1B8ne190103Ev, symObjAddr: 0xEA8, symBinAddr: 0x100002990, symSize: 0x2C }
  - { offset: 0x7AFA, size: 0x8, addend: 0x0, symName: __ZNSt3__16vectorINS_12basic_stringIcNS_11char_traitsIcEENS_9allocatorIcEEEENS4_IS6_EEE21_ConstructTransactionC2B8ne190103ERS8_m, symObjAddr: 0xED4, symBinAddr: 0x1000029BC, symSize: 0x4C }
  - { offset: 0x7B40, size: 0x8, addend: 0x0, symName: __ZNSt3__19allocatorINS_12basic_stringIcNS_11char_traitsIcEENS0_IcEEEEE9constructB8ne190103IS5_JEEEvPT_DpOT0_, symObjAddr: 0xF20, symBinAddr: 0x100002A08, symSize: 0x28 }
  - { offset: 0x7B80, size: 0x8, addend: 0x0, symName: __ZNSt3__112basic_stringIcNS_11char_traitsIcEENS_9allocatorIcEEEC1B8ne190103Ev, symObjAddr: 0xF48, symBinAddr: 0x100002A30, symSize: 0x2C }
  - { offset: 0x7BA8, size: 0x8, addend: 0x0, symName: __ZNSt3__112basic_stringIcNS_11char_traitsIcEENS_9allocatorIcEEEC2B8ne190103Ev, symObjAddr: 0xF74, symBinAddr: 0x100002A5C, symSize: 0x48 }
  - { offset: 0x7BD5, size: 0x8, addend: 0x0, symName: __ZNSt3__117__compressed_pairINS_12basic_stringIcNS_11char_traitsIcEENS_9allocatorIcEEE5__repES5_EC1B8ne190103INS_16__value_init_tagENS_18__default_init_tagEEEOT_OT0_, symObjAddr: 0xFBC, symBinAddr: 0x100002AA4, symSize: 0x3C }
  - { offset: 0x7C2B, size: 0x8, addend: 0x0, symName: __ZNKSt3__112basic_stringIcNS_11char_traitsIcEENS_9allocatorIcEEE14__annotate_newB8ne190103Em, symObjAddr: 0xFF8, symBinAddr: 0x100002AE0, symSize: 0x14 }
  - { offset: 0x7C5E, size: 0x8, addend: 0x0, symName: __ZNSt3__117__compressed_pairINS_12basic_stringIcNS_11char_traitsIcEENS_9allocatorIcEEE5__repES5_EC2B8ne190103INS_16__value_init_tagENS_18__default_init_tagEEEOT_OT0_, symObjAddr: 0x100C, symBinAddr: 0x100002AF4, symSize: 0x3C }
  - { offset: 0x7CB4, size: 0x8, addend: 0x0, symName: __ZNSt3__122__compressed_pair_elemINS_12basic_stringIcNS_11char_traitsIcEENS_9allocatorIcEEE5__repELi0ELb0EEC2B8ne190103ENS_16__value_init_tagE, symObjAddr: 0x1048, symBinAddr: 0x100002B30, symSize: 0x20 }
  - { offset: 0x7CE7, size: 0x8, addend: 0x0, symName: __ZNSt3__122__compressed_pair_elemINS_9allocatorIcEELi1ELb1EEC2B8ne190103ENS_18__default_init_tagE, symObjAddr: 0x1068, symBinAddr: 0x100002B50, symSize: 0x2C }
  - { offset: 0x7D1A, size: 0x8, addend: 0x0, symName: __ZNSt3__19allocatorIcEC2B8ne190103Ev, symObjAddr: 0x1094, symBinAddr: 0x100002B7C, symSize: 0x2C }
  - { offset: 0x7D42, size: 0x8, addend: 0x0, symName: __ZNSt3__116__non_trivial_ifILb1ENS_9allocatorIcEEEC2B8ne190103Ev, symObjAddr: 0x10C0, symBinAddr: 0x100002BA8, symSize: 0x14 }
  - { offset: 0x7D6A, size: 0x8, addend: 0x0, symName: __ZNSt3__16vectorINS_12basic_stringIcNS_11char_traitsIcEENS_9allocatorIcEEEENS4_IS6_EEE21_ConstructTransactionD2B8ne190103Ev, symObjAddr: 0x10D4, symBinAddr: 0x100002BBC, symSize: 0x20 }
  - { offset: 0x7D92, size: 0x8, addend: 0x0, symName: __ZNSt3__128__exception_guard_exceptionsINS_6vectorINS_12basic_stringIcNS_11char_traitsIcEENS_9allocatorIcEEEENS5_IS7_EEE16__destroy_vectorEED2B8ne190103Ev, symObjAddr: 0x10F4, symBinAddr: 0x100002BDC, symSize: 0x50 }
  - { offset: 0x7DBA, size: 0x8, addend: 0x0, symName: __ZNSt3__16vectorINS_12basic_stringIcNS_11char_traitsIcEENS_9allocatorIcEEEENS4_IS6_EEE16__destroy_vectorclB8ne190103Ev, symObjAddr: 0x1144, symBinAddr: 0x100002C2C, symSize: 0x88 }
  - { offset: 0x7DDE, size: 0x8, addend: 0x0, symName: __ZNSt3__16vectorINS_12basic_stringIcNS_11char_traitsIcEENS_9allocatorIcEEEENS4_IS6_EEE7__clearB8ne190103Ev, symObjAddr: 0x11CC, symBinAddr: 0x100002CB4, symSize: 0x28 }
  - { offset: 0x7E02, size: 0x8, addend: 0x0, symName: __ZNKSt3__16vectorINS_12basic_stringIcNS_11char_traitsIcEENS_9allocatorIcEEEENS4_IS6_EEE17__annotate_deleteB8ne190103Ev, symObjAddr: 0x11F4, symBinAddr: 0x100002CDC, symSize: 0x10 }
  - { offset: 0x7E27, size: 0x8, addend: 0x0, symName: __ZNSt3__116allocator_traitsINS_9allocatorINS_12basic_stringIcNS_11char_traitsIcEENS1_IcEEEEEEE10deallocateB8ne190103ERS7_PS6_m, symObjAddr: 0x1204, symBinAddr: 0x100002CEC, symSize: 0x34 }
  - { offset: 0x7E68, size: 0x8, addend: 0x0, symName: __ZNKSt3__16vectorINS_12basic_stringIcNS_11char_traitsIcEENS_9allocatorIcEEEENS4_IS6_EEE8capacityB8ne190103Ev, symObjAddr: 0x1238, symBinAddr: 0x100002D20, symSize: 0x40 }
  - { offset: 0x7E8C, size: 0x8, addend: 0x0, symName: __ZNSt3__16vectorINS_12basic_stringIcNS_11char_traitsIcEENS_9allocatorIcEEEENS4_IS6_EEE22__base_destruct_at_endB8ne190103EPS6_, symObjAddr: 0x1278, symBinAddr: 0x100002D60, symSize: 0x88 }
  - { offset: 0x7ECF, size: 0x8, addend: 0x0, symName: __ZNSt3__116allocator_traitsINS_9allocatorINS_12basic_stringIcNS_11char_traitsIcEENS1_IcEEEEEEE7destroyB8ne190103IS6_TnNS_9enable_ifIXsr13__has_destroyIS7_PT_EE5valueEiE4typeELi0EEEvRS7_SC_, symObjAddr: 0x1300, symBinAddr: 0x100002DE8, symSize: 0x2C }
  - { offset: 0x7F10, size: 0x8, addend: 0x0, symName: __ZNSt3__19allocatorINS_12basic_stringIcNS_11char_traitsIcEENS0_IcEEEEE7destroyB8ne190103EPS5_, symObjAddr: 0x132C, symBinAddr: 0x100002E14, symSize: 0x28 }
  - { offset: 0x7F42, size: 0x8, addend: 0x0, symName: __ZNSt3__19allocatorINS_12basic_stringIcNS_11char_traitsIcEENS0_IcEEEEE10deallocateB8ne190103EPS5_m, symObjAddr: 0x1354, symBinAddr: 0x100002E3C, symSize: 0x44 }
  - { offset: 0x7F82, size: 0x8, addend: 0x0, symName: __ZNKSt3__16vectorINS_12basic_stringIcNS_11char_traitsIcEENS_9allocatorIcEEEENS4_IS6_EEE9__end_capB8ne190103Ev, symObjAddr: 0x1420, symBinAddr: 0x100002F08, symSize: 0x28 }
  - { offset: 0x7FA6, size: 0x8, addend: 0x0, symName: __ZNKSt3__117__compressed_pairIPNS_12basic_stringIcNS_11char_traitsIcEENS_9allocatorIcEEEENS4_IS6_EEE5firstB8ne190103Ev, symObjAddr: 0x1448, symBinAddr: 0x100002F30, symSize: 0x24 }
  - { offset: 0x7FCA, size: 0x8, addend: 0x0, symName: __ZNKSt3__122__compressed_pair_elemIPNS_12basic_stringIcNS_11char_traitsIcEENS_9allocatorIcEEEELi0ELb0EE5__getB8ne190103Ev, symObjAddr: 0x146C, symBinAddr: 0x100002F54, symSize: 0x14 }
  - { offset: 0x7FEE, size: 0x8, addend: 0x0, symName: __ZNSt3__16vectorINS_12basic_stringIcNS_11char_traitsIcEENS_9allocatorIcEEEENS4_IS6_EEED2B8ne190103Ev, symObjAddr: 0x1480, symBinAddr: 0x100002F68, symSize: 0x40 }
  - { offset: 0x8017, size: 0x8, addend: 0x0, symName: __ZNSt3__112basic_stringIcNS_11char_traitsIcEENS_9allocatorIcEEE13__fits_in_ssoB8ne190103Em, symObjAddr: 0x14C0, symBinAddr: 0x100002FA8, symSize: 0x1C }
  - { offset: 0x803A, size: 0x8, addend: 0x0, symName: __ZNSt3__112basic_stringIcNS_11char_traitsIcEENS_9allocatorIcEEE18__get_long_pointerB8ne190103Ev, symObjAddr: 0x14DC, symBinAddr: 0x100002FC4, symSize: 0x28 }
  - { offset: 0x805E, size: 0x8, addend: 0x0, symName: __ZNSt3__112basic_stringIcNS_11char_traitsIcEENS_9allocatorIcEEE13__get_pointerB8ne190103Ev, symObjAddr: 0x1504, symBinAddr: 0x100002FEC, symSize: 0x54 }
  - { offset: 0x8082, size: 0x8, addend: 0x0, symName: __ZNSt3__117__compressed_pairINS_12basic_stringIcNS_11char_traitsIcEENS_9allocatorIcEEE5__repES5_E5firstB8ne190103Ev, symObjAddr: 0x1558, symBinAddr: 0x100003040, symSize: 0x24 }
  - { offset: 0x80A6, size: 0x8, addend: 0x0, symName: __ZNSt3__122__compressed_pair_elemINS_12basic_stringIcNS_11char_traitsIcEENS_9allocatorIcEEE5__repELi0ELb0EE5__getB8ne190103Ev, symObjAddr: 0x157C, symBinAddr: 0x100003064, symSize: 0x14 }
  - { offset: 0x80CA, size: 0x8, addend: 0x0, symName: __ZNKSt3__112basic_stringIcNS_11char_traitsIcEENS_9allocatorIcEEE9__is_longB8ne190103Ev, symObjAddr: 0x1590, symBinAddr: 0x100003078, symSize: 0x34 }
  - { offset: 0x80EE, size: 0x8, addend: 0x0, symName: __ZNSt3__112basic_stringIcNS_11char_traitsIcEENS_9allocatorIcEEE19__get_short_pointerB8ne190103Ev, symObjAddr: 0x15C4, symBinAddr: 0x1000030AC, symSize: 0x28 }
  - { offset: 0x8112, size: 0x8, addend: 0x0, symName: __ZNKSt3__117__compressed_pairINS_12basic_stringIcNS_11char_traitsIcEENS_9allocatorIcEEE5__repES5_E5firstB8ne190103Ev, symObjAddr: 0x15EC, symBinAddr: 0x1000030D4, symSize: 0x24 }
  - { offset: 0x8136, size: 0x8, addend: 0x0, symName: __ZNKSt3__122__compressed_pair_elemINS_12basic_stringIcNS_11char_traitsIcEENS_9allocatorIcEEE5__repELi0ELb0EE5__getB8ne190103Ev, symObjAddr: 0x1610, symBinAddr: 0x1000030F8, symSize: 0x14 }
  - { offset: 0x815B, size: 0x8, addend: 0x0, symName: __ZNSt3__114pointer_traitsIPcE10pointer_toB8ne190103ERc, symObjAddr: 0x1624, symBinAddr: 0x10000310C, symSize: 0x14 }
  - { offset: 0x817E, size: 0x8, addend: 0x0, symName: __ZNSt3__111char_traitsIcE6lengthB8ne190103EPKc, symObjAddr: 0x181C, symBinAddr: 0x100003304, symSize: 0x24 }
  - { offset: 0x81BE, size: 0x8, addend: 0x0, symName: __ZNKSt3__113basic_ostreamIcNS_11char_traitsIcEEE6sentrycvbB8ne190103Ev, symObjAddr: 0x1840, symBinAddr: 0x100003328, symSize: 0x1C }
  - { offset: 0x81E2, size: 0x8, addend: 0x0, symName: __ZNSt3__119ostreambuf_iteratorIcNS_11char_traitsIcEEEC1B8ne190103ERNS_13basic_ostreamIcS2_EE, symObjAddr: 0x1A70, symBinAddr: 0x100003558, symSize: 0x34 }
  - { offset: 0x8218, size: 0x8, addend: 0x0, symName: __ZNKSt3__18ios_base5flagsB8ne190103Ev, symObjAddr: 0x1AA4, symBinAddr: 0x10000358C, symSize: 0x18 }
  - { offset: 0x823E, size: 0x8, addend: 0x0, symName: __ZNKSt3__19basic_iosIcNS_11char_traitsIcEEE4fillB8ne190103Ev, symObjAddr: 0x1ABC, symBinAddr: 0x1000035A4, symSize: 0x64 }
  - { offset: 0x8262, size: 0x8, addend: 0x0, symName: __ZNKSt3__119ostreambuf_iteratorIcNS_11char_traitsIcEEE6failedB8ne190103Ev, symObjAddr: 0x1B20, symBinAddr: 0x100003608, symSize: 0x20 }
  - { offset: 0x8286, size: 0x8, addend: 0x0, symName: __ZNSt3__19basic_iosIcNS_11char_traitsIcEEE8setstateB8ne190103Ej, symObjAddr: 0x1B40, symBinAddr: 0x100003628, symSize: 0x2C }
  - { offset: 0x82B9, size: 0x8, addend: 0x0, symName: __ZNKSt3__18ios_base5widthB8ne190103Ev, symObjAddr: 0x1B6C, symBinAddr: 0x100003654, symSize: 0x18 }
  - { offset: 0x82DF, size: 0x8, addend: 0x0, symName: __ZNSt3__115basic_streambufIcNS_11char_traitsIcEEE5sputnB8ne190103EPKcl, symObjAddr: 0x1B84, symBinAddr: 0x10000366C, symSize: 0x3C }
  - { offset: 0x831F, size: 0x8, addend: 0x0, symName: __ZNSt3__112basic_stringIcNS_11char_traitsIcEENS_9allocatorIcEEEC1B8ne190103Emc, symObjAddr: 0x1BC0, symBinAddr: 0x1000036A8, symSize: 0x3C }
  - { offset: 0x8365, size: 0x8, addend: 0x0, symName: __ZNKSt3__112basic_stringIcNS_11char_traitsIcEENS_9allocatorIcEEE4dataB8ne190103Ev, symObjAddr: 0x1BFC, symBinAddr: 0x1000036E4, symSize: 0x28 }
  - { offset: 0x8389, size: 0x8, addend: 0x0, symName: __ZNSt3__18ios_base5widthB8ne190103El, symObjAddr: 0x1C24, symBinAddr: 0x10000370C, symSize: 0x2C }
  - { offset: 0x83CD, size: 0x8, addend: 0x0, symName: __ZNSt3__112basic_stringIcNS_11char_traitsIcEENS_9allocatorIcEEEC2B8ne190103Emc, symObjAddr: 0x1C50, symBinAddr: 0x100003738, symSize: 0x4C }
  - { offset: 0x8413, size: 0x8, addend: 0x0, symName: __ZNSt3__117__compressed_pairINS_12basic_stringIcNS_11char_traitsIcEENS_9allocatorIcEEE5__repES5_EC1B8ne190103INS_18__default_init_tagESA_EEOT_OT0_, symObjAddr: 0x1C9C, symBinAddr: 0x100003784, symSize: 0x3C }
  - { offset: 0x8469, size: 0x8, addend: 0x0, symName: __ZNSt3__117__compressed_pairINS_12basic_stringIcNS_11char_traitsIcEENS_9allocatorIcEEE5__repES5_EC2B8ne190103INS_18__default_init_tagESA_EEOT_OT0_, symObjAddr: 0x1CD8, symBinAddr: 0x1000037C0, symSize: 0x3C }
  - { offset: 0x84BF, size: 0x8, addend: 0x0, symName: __ZNSt3__122__compressed_pair_elemINS_12basic_stringIcNS_11char_traitsIcEENS_9allocatorIcEEE5__repELi0ELb0EEC2B8ne190103ENS_18__default_init_tagE, symObjAddr: 0x1D14, symBinAddr: 0x1000037FC, symSize: 0x14 }
  - { offset: 0x84F2, size: 0x8, addend: 0x0, symName: __ZNKSt3__112basic_stringIcNS_11char_traitsIcEENS_9allocatorIcEEE13__get_pointerB8ne190103Ev, symObjAddr: 0x1D3C, symBinAddr: 0x100003824, symSize: 0x54 }
  - { offset: 0x8516, size: 0x8, addend: 0x0, symName: __ZNKSt3__112basic_stringIcNS_11char_traitsIcEENS_9allocatorIcEEE18__get_long_pointerB8ne190103Ev, symObjAddr: 0x1D90, symBinAddr: 0x100003878, symSize: 0x28 }
  - { offset: 0x853A, size: 0x8, addend: 0x0, symName: __ZNKSt3__112basic_stringIcNS_11char_traitsIcEENS_9allocatorIcEEE19__get_short_pointerB8ne190103Ev, symObjAddr: 0x1DB8, symBinAddr: 0x1000038A0, symSize: 0x28 }
  - { offset: 0x855F, size: 0x8, addend: 0x0, symName: __ZNSt3__114pointer_traitsIPKcE10pointer_toB8ne190103ERS1_, symObjAddr: 0x1DE0, symBinAddr: 0x1000038C8, symSize: 0x14 }
  - { offset: 0x8581, size: 0x8, addend: 0x0, symName: __ZNSt3__119ostreambuf_iteratorIcNS_11char_traitsIcEEEC2B8ne190103ERNS_13basic_ostreamIcS2_EE, symObjAddr: 0x1DF4, symBinAddr: 0x1000038DC, symSize: 0x54 }
  - { offset: 0x85B7, size: 0x8, addend: 0x0, symName: __ZNKSt3__19basic_iosIcNS_11char_traitsIcEEE5rdbufB8ne190103Ev, symObjAddr: 0x1E48, symBinAddr: 0x100003930, symSize: 0x24 }
  - { offset: 0x85DB, size: 0x8, addend: 0x0, symName: __ZNKSt3__18ios_base5rdbufB8ne190103Ev, symObjAddr: 0x1E6C, symBinAddr: 0x100003954, symSize: 0x18 }
  - { offset: 0x85FF, size: 0x8, addend: 0x0, symName: __ZNKSt3__118_SentinelValueFillINS_11char_traitsIcEEE8__is_setB8ne190103Ev, symObjAddr: 0x1E84, symBinAddr: 0x10000396C, symSize: 0x38 }
  - { offset: 0x8623, size: 0x8, addend: 0x0, symName: __ZNKSt3__19basic_iosIcNS_11char_traitsIcEEE5widenB8ne190103Ec, symObjAddr: 0x1EBC, symBinAddr: 0x1000039A4, symSize: 0x80 }
  - { offset: 0x8656, size: 0x8, addend: 0x0, symName: __ZNSt3__118_SentinelValueFillINS_11char_traitsIcEEEaSB8ne190103Ei, symObjAddr: 0x1F3C, symBinAddr: 0x100003A24, symSize: 0x20 }
  - { offset: 0x8689, size: 0x8, addend: 0x0, symName: __ZNKSt3__118_SentinelValueFillINS_11char_traitsIcEEE5__getB8ne190103Ev, symObjAddr: 0x1F5C, symBinAddr: 0x100003A44, symSize: 0x18 }
  - { offset: 0x86AE, size: 0x8, addend: 0x0, symName: __ZNSt3__111char_traitsIcE3eofB8ne190103Ev, symObjAddr: 0x1F74, symBinAddr: 0x100003A5C, symSize: 0x8 }
  - { offset: 0x8703, size: 0x8, addend: 0x0, symName: __ZNKSt3__15ctypeIcE5widenB8ne190103Ec, symObjAddr: 0x1FA8, symBinAddr: 0x100003A90, symSize: 0x34 }
  - { offset: 0x8736, size: 0x8, addend: 0x0, symName: __ZNSt3__18ios_base8setstateB8ne190103Ej, symObjAddr: 0x1FDC, symBinAddr: 0x100003AC4, symSize: 0x34 }
...
